target datalayout = "e-m:e-p270:32:32-p271:32:32-p272:64:64-i64:64-i128:128-f80:128-n8:16:32:64-S128"
target triple = "x86_64-pc-linux-gnu"

%struct.H5HG_t = type { i64, i64 }

@.str = private unnamed_addr constant [109 x i8] c"generated/home/dtcxzyw/WorkSpace/Projects/compilers/llvm-opt-benchmark/bench/hdf5/hdf5/src/H5VLnative_blob.c\00", align 1
@H5E_VOL_g = external global i64, align 8
@__func__.H5VL__native_blob_get = private unnamed_addr constant [22 x i8] c"H5VL__native_blob_get\00", align 1
@H5E_CANTGETSIZE_g = external global i64, align 8
@.str.2 = private unnamed_addr constant [22 x i8] c"can't get object size\00", align 1
@H5E_BADSIZE_g = external global i64, align 8
@.str.3 = private unnamed_addr constant [48 x i8] c"Expected global heap object size does not match\00", align 1
@H5E_READERROR_g = external global i64, align 8
@.str.4 = private unnamed_addr constant [30 x i8] c"unable to read VL information\00", align 1

; Function Attrs: nounwind uwtable
define i32 @H5VL__native_blob_get(ptr noundef %0, ptr noundef %1, ptr noundef %2, i64 noundef %3, ptr noundef %4) #0 {
  %6 = alloca ptr, align 8
  %7 = alloca ptr, align 8
  %8 = alloca ptr, align 8
  %9 = alloca i64, align 8
  %10 = alloca ptr, align 8
  %11 = alloca ptr, align 8
  %12 = alloca ptr, align 8
  %13 = alloca %struct.H5HG_t, align 8
  %14 = alloca i64, align 8
  %15 = alloca i32, align 4
  %16 = alloca i8, align 1
  store ptr %0, ptr %6, align 8, !tbaa !3
  store ptr %1, ptr %7, align 8, !tbaa !3
  store ptr %2, ptr %8, align 8, !tbaa !3
  store i64 %3, ptr %9, align 8, !tbaa !7
  store ptr %4, ptr %10, align 8, !tbaa !3
  call void @llvm.lifetime.start.p0(i64 8, ptr %11) #3
  %17 = load ptr, ptr %6, align 8, !tbaa !3
  store ptr %17, ptr %11, align 8, !tbaa !9
  call void @llvm.lifetime.start.p0(i64 8, ptr %12) #3
  %18 = load ptr, ptr %7, align 8, !tbaa !3
  store ptr %18, ptr %12, align 8, !tbaa !11
  call void @llvm.lifetime.start.p0(i64 16, ptr %13) #3
  call void @llvm.lifetime.start.p0(i64 8, ptr %14) #3
  store i64 0, ptr %14, align 8, !tbaa !7
  call void @llvm.lifetime.start.p0(i64 4, ptr %15) #3
  store i32 0, ptr %15, align 4, !tbaa !13
  call void @llvm.lifetime.start.p0(i64 1, ptr %16) #3
  store i8 0, ptr %16, align 1, !tbaa !15
  %19 = load ptr, ptr %11, align 8, !tbaa !9
  %20 = getelementptr inbounds nuw %struct.H5HG_t, ptr %13, i32 0, i32 0
  call void @H5F_addr_decode(ptr noundef %19, ptr noundef %12, ptr noundef %20)
  br label %21

21:                                               ; preds = %5
  %22 = load ptr, ptr %12, align 8, !tbaa !11
  %23 = load i8, ptr %22, align 1, !tbaa !22
  %24 = zext i8 %23 to i32
  %25 = and i32 %24, 255
  %26 = zext i32 %25 to i64
  %27 = getelementptr inbounds nuw %struct.H5HG_t, ptr %13, i32 0, i32 1
  store i64 %26, ptr %27, align 8, !tbaa !21
  %28 = load ptr, ptr %12, align 8, !tbaa !11
  %29 = getelementptr inbounds nuw i8, ptr %28, i32 1
  store ptr %29, ptr %12, align 8, !tbaa !11
  %30 = load ptr, ptr %12, align 8, !tbaa !11
  %31 = load i8, ptr %30, align 1, !tbaa !22
  %32 = zext i8 %31 to i32
  %33 = and i32 %32, 255
  %34 = shl i32 %33, 8
  %35 = zext i32 %34 to i64
  %36 = getelementptr inbounds nuw %struct.H5HG_t, ptr %13, i32 0, i32 1
  %37 = load i64, ptr %36, align 8, !tbaa !21
  %38 = or i64 %37, %35
  store i64 %38, ptr %36, align 8, !tbaa !21
  %39 = load ptr, ptr %12, align 8, !tbaa !11
  %40 = getelementptr inbounds nuw i8, ptr %39, i32 1
  store ptr %40, ptr %12, align 8, !tbaa !11
  %41 = load ptr, ptr %12, align 8, !tbaa !11
  %42 = load i8, ptr %41, align 1, !tbaa !22
  %43 = zext i8 %42 to i32
  %44 = and i32 %43, 255
  %45 = shl i32 %44, 16
  %46 = zext i32 %45 to i64
  %47 = getelementptr inbounds nuw %struct.H5HG_t, ptr %13, i32 0, i32 1
  %48 = load i64, ptr %47, align 8, !tbaa !21
  %49 = or i64 %48, %46
  store i64 %49, ptr %47, align 8, !tbaa !21
  %50 = load ptr, ptr %12, align 8, !tbaa !11
  %51 = getelementptr inbounds nuw i8, ptr %50, i32 1
  store ptr %51, ptr %12, align 8, !tbaa !11
  %52 = load ptr, ptr %12, align 8, !tbaa !11
  %53 = load i8, ptr %52, align 1, !tbaa !22
  %54 = zext i8 %53 to i32
  %55 = and i32 %54, 255
  %56 = shl i32 %55, 24
  %57 = zext i32 %56 to i64
  %58 = getelementptr inbounds nuw %struct.H5HG_t, ptr %13, i32 0, i32 1
  %59 = load i64, ptr %58, align 8, !tbaa !21
  %60 = or i64 %59, %57
  store i64 %60, ptr %58, align 8, !tbaa !21
  %61 = load ptr, ptr %12, align 8, !tbaa !11
  %62 = getelementptr inbounds nuw i8, ptr %61, i32 1
  store ptr %62, ptr %12, align 8, !tbaa !11
  br label %63

63:                                               ; preds = %21
  br label %64

64:                                               ; preds = %63
  %65 = getelementptr inbounds nuw %struct.H5HG_t, ptr %13, i32 0, i32 0
  %66 = load i64, ptr %65, align 8, !tbaa !19
  %67 = icmp ugt i64 %66, 0
  br i1 %67, label %68, label %139

68:                                               ; preds = %64
  %69 = load ptr, ptr %11, align 8, !tbaa !9
  %70 = call i32 @H5HG_get_obj_size(ptr noundef %69, ptr noundef %13, ptr noundef %14)
  %71 = icmp slt i32 %70, 0
  br i1 %71, label %72, label %91

72:                                               ; preds = %68
  br label %73

73:                                               ; preds = %72
  br label %74

74:                                               ; preds = %73
  br label %75

75:                                               ; preds = %74
  %76 = load i64, ptr @H5E_VOL_g, align 8, !tbaa !7
  %77 = load i64, ptr @H5E_CANTGETSIZE_g, align 8, !tbaa !7
  %78 = call i32 (ptr, ptr, i32, i64, i64, ptr, ...) @H5E_printf_stack(ptr noundef @.str, ptr noundef @__func__.H5VL__native_blob_get, i32 noundef 119, i64 noundef %76, i64 noundef %77, ptr noundef @.str.2)
  br label %79

79:                                               ; preds = %75
  br label %80

80:                                               ; preds = %79
  store i8 1, ptr %16, align 1, !tbaa !15
  %81 = load i8, ptr %16, align 1, !tbaa !15, !range !17, !noundef !18
  %82 = trunc i8 %81 to i1
  %83 = zext i1 %82 to i8
  store i8 %83, ptr %16, align 1, !tbaa !15
  br label %84

84:                                               ; preds = %80
  br label %85

85:                                               ; preds = %84
  br label %86

86:                                               ; preds = %85
  store i32 -1, ptr %15, align 4, !tbaa !13
  br label %140

87:                                               ; No predecessors!
  br label %88

88:                                               ; preds = %87
  br label %89

89:                                               ; preds = %88
  br label %90

90:                                               ; preds = %89
  br label %91

91:                                               ; preds = %90, %68
  %92 = load i64, ptr %14, align 8, !tbaa !7
  %93 = load i64, ptr %9, align 8, !tbaa !7
  %94 = icmp ne i64 %92, %93
  br i1 %94, label %95, label %114

95:                                               ; preds = %91
  br label %96

96:                                               ; preds = %95
  br label %97

97:                                               ; preds = %96
  br label %98

98:                                               ; preds = %97
  %99 = load i64, ptr @H5E_VOL_g, align 8, !tbaa !7
  %100 = load i64, ptr @H5E_BADSIZE_g, align 8, !tbaa !7
  %101 = call i32 (ptr, ptr, i32, i64, i64, ptr, ...) @H5E_printf_stack(ptr noundef @.str, ptr noundef @__func__.H5VL__native_blob_get, i32 noundef 121, i64 noundef %99, i64 noundef %100, ptr noundef @.str.3)
  br label %102

102:                                              ; preds = %98
  br label %103

103:                                              ; preds = %102
  store i8 1, ptr %16, align 1, !tbaa !15
  %104 = load i8, ptr %16, align 1, !tbaa !15, !range !17, !noundef !18
  %105 = trunc i8 %104 to i1
  %106 = zext i1 %105 to i8
  store i8 %106, ptr %16, align 1, !tbaa !15
  br label %107

107:                                              ; preds = %103
  br label %108

108:                                              ; preds = %107
  br label %109

109:                                              ; preds = %108
  store i32 -1, ptr %15, align 4, !tbaa !13
  br label %140

110:                                              ; No predecessors!
  br label %111

111:                                              ; preds = %110
  br label %112

112:                                              ; preds = %111
  br label %113

113:                                              ; preds = %112
  br label %114

114:                                              ; preds = %113, %91
  %115 = load ptr, ptr %11, align 8, !tbaa !9
  %116 = load ptr, ptr %8, align 8, !tbaa !3
  %117 = call ptr @H5HG_read(ptr noundef %115, ptr noundef %13, ptr noundef %116, ptr noundef %14)
  %118 = icmp eq ptr null, %117
  br i1 %118, label %119, label %138

119:                                              ; preds = %114
  br label %120

120:                                              ; preds = %119
  br label %121

121:                                              ; preds = %120
  br label %122

122:                                              ; preds = %121
  %123 = load i64, ptr @H5E_VOL_g, align 8, !tbaa !7
  %124 = load i64, ptr @H5E_READERROR_g, align 8, !tbaa !7
  %125 = call i32 (ptr, ptr, i32, i64, i64, ptr, ...) @H5E_printf_stack(ptr noundef @.str, ptr noundef @__func__.H5VL__native_blob_get, i32 noundef 125, i64 noundef %123, i64 noundef %124, ptr noundef @.str.4)
  br label %126

126:                                              ; preds = %122
  br label %127

127:                                              ; preds = %126
  store i8 1, ptr %16, align 1, !tbaa !15
  %128 = load i8, ptr %16, align 1, !tbaa !15, !range !17, !noundef !18
  %129 = trunc i8 %128 to i1
  %130 = zext i1 %129 to i8
  store i8 %130, ptr %16, align 1, !tbaa !15
  br label %131

131:                                              ; preds = %127
  br label %132

132:                                              ; preds = %131
  br label %133

133:                                              ; preds = %132
  store i32 -1, ptr %15, align 4, !tbaa !13
  br label %140

134:                                              ; No predecessors!
  br label %135

135:                                              ; preds = %134
  br label %136

136:                                              ; preds = %135
  br label %137

137:                                              ; preds = %136
  br label %138

138:                                              ; preds = %137, %114
  br label %139

139:                                              ; preds = %138, %64
  br label %140

140:                                              ; preds = %139, %133, %109, %86
  %141 = load i32, ptr %15, align 4, !tbaa !13
  call void @llvm.lifetime.end.p0(i64 1, ptr %16) #3
  call void @llvm.lifetime.end.p0(i64 4, ptr %15) #3
  call void @llvm.lifetime.end.p0(i64 8, ptr %14) #3
  call void @llvm.lifetime.end.p0(i64 16, ptr %13) #3
  call void @llvm.lifetime.end.p0(i64 8, ptr %12) #3
  call void @llvm.lifetime.end.p0(i64 8, ptr %11) #3
  ret i32 %141
}