; Function Attrs: nounwind uwtable
define range(i32 -1, 1) i32 @H5VL__native_blob_get(ptr noundef %0, ptr noundef %1, ptr noundef %2, i64 noundef %3, ptr noundef readnone captures(none) %4) local_unnamed_addr #0 {
  %6 = alloca ptr, align 8
  %7 = alloca %struct.H5HG_t, align 8
  %8 = alloca i64, align 8
  call void @llvm.lifetime.start.p0(i64 8, ptr nonnull %6) #3
  store ptr %1, ptr %6, align 8, !tbaa !3
  call void @llvm.lifetime.start.p0(i64 16, ptr nonnull %7) #3
  call void @llvm.lifetime.start.p0(i64 8, ptr nonnull %8) #3
  store i64 0, ptr %8, align 8, !tbaa !8
  call void @H5F_addr_decode(ptr noundef %0, ptr noundef nonnull %6, ptr noundef nonnull %7) #3
  %9 = load ptr, ptr %6, align 8, !tbaa !3
  %10 = load i8, ptr %9, align 1, !tbaa !13
  %11 = zext i8 %10 to i64
  %12 = getelementptr inbounds nuw i8, ptr %7, i64 8
  store i64 %11, ptr %12, align 8, !tbaa !12
  %13 = getelementptr inbounds nuw i8, ptr %9, i64 1
  store ptr %13, ptr %6, align 8, !tbaa !3
  %14 = load i8, ptr %13, align 1, !tbaa !13
  %15 = zext i8 %14 to i64
  %16 = shl nuw nsw i64 %15, 8
  %17 = or disjoint i64 %16, %11
  store i64 %17, ptr %12, align 8, !tbaa !12
  %18 = getelementptr inbounds nuw i8, ptr %9, i64 2
  store ptr %18, ptr %6, align 8, !tbaa !3
  %19 = load i8, ptr %18, align 1, !tbaa !13
  %20 = zext i8 %19 to i64
  %21 = shl nuw nsw i64 %20, 16
  %22 = or disjoint i64 %21, %17
  store i64 %22, ptr %12, align 8, !tbaa !12
  %23 = getelementptr inbounds nuw i8, ptr %9, i64 3
  store ptr %23, ptr %6, align 8, !tbaa !3
  %24 = load i8, ptr %23, align 1, !tbaa !13
  %25 = zext i8 %24 to i64
  %26 = shl nuw nsw i64 %25, 24
  %27 = or disjoint i64 %26, %22
  store i64 %27, ptr %12, align 8, !tbaa !12
  %28 = getelementptr inbounds nuw i8, ptr %9, i64 4
  store ptr %28, ptr %6, align 8, !tbaa !3
  %29 = load i64, ptr %7, align 8, !tbaa !10
  %.not = icmp eq i64 %29, 0
  br i1 %.not, label %50, label %30

30:                                               ; preds = %5
  %31 = call i32 @H5HG_get_obj_size(ptr noundef %0, ptr noundef nonnull %7, ptr noundef nonnull %8) #3
  %32 = icmp slt i32 %31, 0
  br i1 %32, label %33, label %37

33:                                               ; preds = %30
  %34 = load i64, ptr @H5E_VOL_g, align 8, !tbaa !8
  %35 = load i64, ptr @H5E_CANTGETSIZE_g, align 8, !tbaa !8
  %36 = call i32 (ptr, ptr, i32, i64, i64, ptr, ...) @H5E_printf_stack(ptr noundef nonnull @.str, ptr noundef nonnull @__func__.H5VL__native_blob_get, i32 noundef 119, i64 noundef %34, i64 noundef %35, ptr noundef nonnull @.str.2) #3
  br label %50

37:                                               ; preds = %30
  %38 = load i64, ptr %8, align 8, !tbaa !8
  %.not10 = icmp eq i64 %38, %3
  br i1 %.not10, label %43, label %39

39:                                               ; preds = %37
  %40 = load i64, ptr @H5E_VOL_g, align 8, !tbaa !8
  %41 = load i64, ptr @H5E_BADSIZE_g, align 8, !tbaa !8
  %42 = call i32 (ptr, ptr, i32, i64, i64, ptr, ...) @H5E_printf_stack(ptr noundef nonnull @.str, ptr noundef nonnull @__func__.H5VL__native_blob_get, i32 noundef 121, i64 noundef %40, i64 noundef %41, ptr noundef nonnull @.str.3) #3
  br label %50

43:                                               ; preds = %37
  %44 = call ptr @H5HG_read(ptr noundef %0, ptr noundef nonnull %7, ptr noundef %2, ptr noundef nonnull %8) #3
  %45 = icmp eq ptr %44, null
  br i1 %45, label %46, label %50

46:                                               ; preds = %43
  %47 = load i64, ptr @H5E_VOL_g, align 8, !tbaa !8
  %48 = load i64, ptr @H5E_READERROR_g, align 8, !tbaa !8
  %49 = call i32 (ptr, ptr, i32, i64, i64, ptr, ...) @H5E_printf_stack(ptr noundef nonnull @.str, ptr noundef nonnull @__func__.H5VL__native_blob_get, i32 noundef 125, i64 noundef %47, i64 noundef %48, ptr noundef nonnull @.str.4) #3
  br label %50

50:                                               ; preds = %5, %43, %46, %39, %33
  %.0 = phi i32 [ -1, %33 ], [ -1, %39 ], [ -1, %46 ], [ 0, %43 ], [ 0, %5 ]
  call void @llvm.lifetime.end.p0(i64 8, ptr nonnull %8) #3
  call void @llvm.lifetime.end.p0(i64 16, ptr nonnull %7) #3
  call void @llvm.lifetime.end.p0(i64 8, ptr nonnull %6) #3
  ret i32 %.0
}